target datalayout = "e-m:e-p270:32:32-p271:32:32-p272:64:64-i64:64-f80:128-n8:16:32:64-S128"
target triple = "x86_64-pc-linux-gnu"

@.str = private unnamed_addr constant [6 x i8] c"%d,%d\00", align 1
@.str.1 = private unnamed_addr constant [3 x i8] c"%d\00", align 1
@.str.2 = private unnamed_addr constant [6 x i8] c"%d+%d\00", align 1
@.str.3 = private unnamed_addr constant [3 x i8] c"No\00", align 1

; Function Attrs: noinline nounwind uwtable
define dso_local i32 @main() #0 {
  %1 = alloca i32, align 4
  %2 = alloca [8 x [8 x i32]], align 16
  %3 = alloca [8 x i32], align 16
  %4 = alloca [8 x i32], align 16
  %5 = alloca i32, align 4
  %6 = alloca i32, align 4
  %7 = alloca i32, align 4
  %8 = alloca i32, align 4
  store i32 0, i32* %1, align 4
  %9 = bitcast [8 x [8 x i32]]* %2 to i8*
  call void @llvm.memset.p0i8.i64(i8* align 16 %9, i8 0, i64 256, i1 false)
  %10 = call i32 (i8*, ...) @__isoc99_scanf(i8* getelementptr inbounds ([6 x i8], [6 x i8]* @.str, i64 0, i64 0), i32* %7, i32* %8)
  store i32 0, i32* %5, align 4
  br label %11

11:                                               ; preds = %59, %0
  %12 = load i32, i32* %5, align 4
  %13 = load i32, i32* %7, align 4
  %14 = icmp slt i32 %12, %13
  br i1 %14, label %15, label %62

15:                                               ; preds = %11
  %16 = load i32, i32* %5, align 4
  %17 = sext i32 %16 to i64
  %18 = getelementptr inbounds [8 x i32], [8 x i32]* %4, i64 0, i64 %17
  store i32 -1, i32* %18, align 4
  store i32 0, i32* %6, align 4
  br label %19

19:                                               ; preds = %55, %15
  %20 = load i32, i32* %6, align 4
  %21 = load i32, i32* %8, align 4
  %22 = icmp slt i32 %20, %21
  br i1 %22, label %23, label %58

23:                                               ; preds = %19
  %24 = load i32, i32* %5, align 4
  %25 = sext i32 %24 to i64
  %26 = getelementptr inbounds [8 x [8 x i32]], [8 x [8 x i32]]* %2, i64 0, i64 %25
  %27 = load i32, i32* %6, align 4
  %28 = sext i32 %27 to i64
  %29 = getelementptr inbounds [8 x i32], [8 x i32]* %26, i64 0, i64 %28
  %30 = call i32 (i8*, ...) @__isoc99_scanf(i8* getelementptr inbounds ([3 x i8], [3 x i8]* @.str.1, i64 0, i64 0), i32* %29)
  %31 = load i32, i32* %5, align 4
  %32 = sext i32 %31 to i64
  %33 = getelementptr inbounds [8 x [8 x i32]], [8 x [8 x i32]]* %2, i64 0, i64 %32
  %34 = load i32, i32* %6, align 4
  %35 = sext i32 %34 to i64
  %36 = getelementptr inbounds [8 x i32], [8 x i32]* %33, i64 0, i64 %35
  %37 = load i32, i32* %36, align 4
  %38 = load i32, i32* %5, align 4
  %39 = sext i32 %38 to i64
  %40 = getelementptr inbounds [8 x i32], [8 x i32]* %4, i64 0, i64 %39
  %41 = load i32, i32* %40, align 4
  %42 = icmp sgt i32 %37, %41
  br i1 %42, label %43, label %54

43:                                               ; preds = %23
  %44 = load i32, i32* %5, align 4
  %45 = sext i32 %44 to i64
  %46 = getelementptr inbounds [8 x [8 x i32]], [8 x [8 x i32]]* %2, i64 0, i64 %45
  %47 = load i32, i32* %6, align 4
  %48 = sext i32 %47 to i64
  %49 = getelementptr inbounds [8 x i32], [8 x i32]* %46, i64 0, i64 %48
  %50 = load i32, i32* %49, align 4
  %51 = load i32, i32* %5, align 4
  %52 = sext i32 %51 to i64
  %53 = getelementptr inbounds [8 x i32], [8 x i32]* %4, i64 0, i64 %52
  store i32 %50, i32* %53, align 4
  br label %54

54:                                               ; preds = %43, %23
  br label %55

55:                                               ; preds = %54
  %56 = load i32, i32* %6, align 4
  %57 = add nsw i32 %56, 1
  store i32 %57, i32* %6, align 4
  br label %19

58:                                               ; preds = %19
  br label %59

59:                                               ; preds = %58
  %60 = load i32, i32* %5, align 4
  %61 = add nsw i32 %60, 1
  store i32 %61, i32* %5, align 4
  br label %11

62:                                               ; preds = %11
  store i32 0, i32* %6, align 4
  br label %63

63:                                               ; preds = %104, %62
  %64 = load i32, i32* %6, align 4
  %65 = load i32, i32* %8, align 4
  %66 = icmp slt i32 %64, %65
  br i1 %66, label %67, label %107

67:                                               ; preds = %63
  %68 = load i32, i32* %6, align 4
  %69 = sext i32 %68 to i64
  %70 = getelementptr inbounds [8 x i32], [8 x i32]* %3, i64 0, i64 %69
  store i32 10000, i32* %70, align 4
  store i32 0, i32* %5, align 4
  br label %71

71:                                               ; preds = %100, %67
  %72 = load i32, i32* %5, align 4
  %73 = load i32, i32* %7, align 4
  %74 = icmp slt i32 %72, %73
  br i1 %74, label %75, label %103

75:                                               ; preds = %71
  %76 = load i32, i32* %5, align 4
  %77 = sext i32 %76 to i64
  %78 = getelementptr inbounds [8 x [8 x i32]], [8 x [8 x i32]]* %2, i64 0, i64 %77
  %79 = load i32, i32* %6, align 4
  %80 = sext i32 %79 to i64
  %81 = getelementptr inbounds [8 x i32], [8 x i32]* %78, i64 0, i64 %80
  %82 = load i32, i32* %81, align 4
  %83 = load i32, i32* %6, align 4
  %84 = sext i32 %83 to i64
  %85 = getelementptr inbounds [8 x i32], [8 x i32]* %3, i64 0, i64 %84
  %86 = load i32, i32* %85, align 4
  %87 = icmp slt i32 %82, %86
  br i1 %87, label %88, label %99

88:                                               ; preds = %75
  %89 = load i32, i32* %5, align 4
  %90 = sext i32 %89 to i64
  %91 = getelementptr inbounds [8 x [8 x i32]], [8 x [8 x i32]]* %2, i64 0, i64 %90
  %92 = load i32, i32* %6, align 4
  %93 = sext i32 %92 to i64
  %94 = getelementptr inbounds [8 x i32], [8 x i32]* %91, i64 0, i64 %93
  %95 = load i32, i32* %94, align 4
  %96 = load i32, i32* %6, align 4
  %97 = sext i32 %96 to i64
  %98 = getelementptr inbounds [8 x i32], [8 x i32]* %3, i64 0, i64 %97
  store i32 %95, i32* %98, align 4
  br label %99

99:                                               ; preds = %88, %75
  br label %100

100:                                              ; preds = %99
  %101 = load i32, i32* %5, align 4
  %102 = add nsw i32 %101, 1
  store i32 %102, i32* %5, align 4
  br label %71

103:                                              ; preds = %71
  br label %104

104:                                              ; preds = %103
  %105 = load i32, i32* %6, align 4
  %106 = add nsw i32 %105, 1
  store i32 %106, i32* %6, align 4
  br label %63

107:                                              ; preds = %63
  store i32 0, i32* %5, align 4
  br label %108

108:                                              ; preds = %157, %107
  %109 = load i32, i32* %5, align 4
  %110 = load i32, i32* %7, align 4
  %111 = icmp slt i32 %109, %110
  br i1 %111, label %112, label %160

112:                                              ; preds = %108
  store i32 0, i32* %6, align 4
  br label %113

113:                                              ; preds = %148, %112
  %114 = load i32, i32* %6, align 4
  %115 = load i32, i32* %8, align 4
  %116 = icmp slt i32 %114, %115
  br i1 %116, label %117, label %151

117:                                              ; preds = %113
  %118 = load i32, i32* %5, align 4
  %119 = sext i32 %118 to i64
  %120 = getelementptr inbounds [8 x [8 x i32]], [8 x [8 x i32]]* %2, i64 0, i64 %119
  %121 = load i32, i32* %6, align 4
  %122 = sext i32 %121 to i64
  %123 = getelementptr inbounds [8 x i32], [8 x i32]* %120, i64 0, i64 %122
  %124 = load i32, i32* %123, align 4
  %125 = load i32, i32* %6, align 4
  %126 = sext i32 %125 to i64
  %127 = getelementptr inbounds [8 x i32], [8 x i32]* %3, i64 0, i64 %126
  %128 = load i32, i32* %127, align 4
  %129 = icmp eq i32 %124, %128
  br i1 %129, label %130, label %147

130:                                              ; preds = %117
  %131 = load i32, i32* %5, align 4
  %132 = sext i32 %131 to i64
  %133 = getelementptr inbounds [8 x [8 x i32]], [8 x [8 x i32]]* %2, i64 0, i64 %132
  %134 = load i32, i32* %6, align 4
  %135 = sext i32 %134 to i64
  %136 = getelementptr inbounds [8 x i32], [8 x i32]* %133, i64 0, i64 %135
  %137 = load i32, i32* %136, align 4
  %138 = load i32, i32* %5, align 4
  %139 = sext i32 %138 to i64
  %140 = getelementptr inbounds [8 x i32], [8 x i32]* %4, i64 0, i64 %139
  %141 = load i32, i32* %140, align 4
  %142 = icmp eq i32 %137, %141
  br i1 %142, label %143, label %147

143:                                              ; preds = %130
  %144 = load i32, i32* %5, align 4
  %145 = load i32, i32* %6, align 4
  %146 = call i32 (i8*, ...) @printf(i8* getelementptr inbounds ([6 x i8], [6 x i8]* @.str.2, i64 0, i64 0), i32 %144, i32 %145)
  br label %151

147:                                              ; preds = %130, %117
  br label %148

148:                                              ; preds = %147
  %149 = load i32, i32* %6, align 4
  %150 = add nsw i32 %149, 1
  store i32 %150, i32* %6, align 4
  br label %113

151:                                              ; preds = %143, %113
  %152 = load i32, i32* %6, align 4
  %153 = load i32, i32* %8, align 4
  %154 = icmp ne i32 %152, %153
  br i1 %154, label %155, label %156

155:                                              ; preds = %151
  br label %160

156:                                              ; preds = %151
  br label %157

157:                                              ; preds = %156
  %158 = load i32, i32* %5, align 4
  %159 = add nsw i32 %158, 1
  store i32 %159, i32* %5, align 4
  br label %108

160:                                              ; preds = %155, %108
  %161 = load i32, i32* %5, align 4
  %162 = load i32, i32* %7, align 4
  %163 = icmp eq i32 %161, %162
  br i1 %163, label %164, label %170

164:                                              ; preds = %160
  %165 = load i32, i32* %6, align 4
  %166 = load i32, i32* %8, align 4
  %167 = icmp eq i32 %165, %166
  br i1 %167, label %168, label %170

168:                                              ; preds = %164
  %169 = call i32 (i8*, ...) @printf(i8* getelementptr inbounds ([3 x i8], [3 x i8]* @.str.3, i64 0, i64 0))
  br label %170

170:                                              ; preds = %168, %164, %160
  ret i32 0
}