; Function Attrs: nofree nounwind sspstrong uwtable
define dso_local i32 @main() local_unnamed_addr #0 {
  %1 = alloca [8 x [8 x i32]], align 16
  %2 = alloca [8 x i32], align 16
  %3 = alloca [8 x i32], align 16
  %4 = bitcast [8 x i32]* %3 to i8*
  %5 = alloca i32, align 4
  %6 = alloca i32, align 4
  %7 = bitcast [8 x [8 x i32]]* %1 to i8*
  call void @llvm.lifetime.start.p0i8(i64 256, i8* nonnull %7) #4
  call void @llvm.memset.p0i8.i64(i8* noundef nonnull align 16 dereferenceable(256) %7, i8 0, i64 256, i1 false)
  %8 = bitcast [8 x i32]* %2 to i8*
  call void @llvm.lifetime.start.p0i8(i64 32, i8* nonnull %8) #4
  call void @llvm.lifetime.start.p0i8(i64 32, i8* nonnull %4) #4
  %9 = bitcast i32* %5 to i8*
  call void @llvm.lifetime.start.p0i8(i64 4, i8* nonnull %9) #4
  %10 = bitcast i32* %6 to i8*
  call void @llvm.lifetime.start.p0i8(i64 4, i8* nonnull %10) #4
  %11 = call i32 (i8*, ...) @__isoc99_scanf(i8* getelementptr inbounds ([6 x i8], [6 x i8]* @.str, i64 0, i64 0), i32* nonnull %5, i32* nonnull %6)
  %12 = load i32, i32* %5, align 4, !tbaa !5
  %13 = icmp sgt i32 %12, 0
  %14 = load i32, i32* %6, align 4, !tbaa !5
  br i1 %13, label %15, label %20

15:                                               ; preds = %0
  %16 = icmp sgt i32 %14, 0
  br i1 %16, label %155, label %17

17:                                               ; preds = %15
  %18 = zext i32 %12 to i64
  %19 = shl nuw nsw i64 %18, 2
  call void @llvm.memset.p0i8.i64(i8* nonnull align 16 %4, i8 -1, i64 %19, i1 false)
  br label %188

20:                                               ; preds = %177, %0
  %21 = phi i32 [ %14, %0 ], [ %179, %177 ]
  %22 = phi i32 [ %12, %0 ], [ %178, %177 ]
  %23 = icmp sgt i32 %21, 0
  br i1 %23, label %24, label %183

24:                                               ; preds = %20
  %25 = icmp sgt i32 %22, 0
  %26 = zext i32 %21 to i64
  br i1 %25, label %100, label %27

27:                                               ; preds = %24
  %28 = icmp ult i32 %21, 8
  br i1 %28, label %98, label %29

29:                                               ; preds = %27
  %30 = and i64 %26, 4294967288
  %31 = add nsw i64 %30, -8
  %32 = lshr exact i64 %31, 3
  %33 = add nuw nsw i64 %32, 1
  %34 = and i64 %33, 7
  %35 = icmp ult i64 %31, 56
  br i1 %35, label %83, label %36

36:                                               ; preds = %29
  %37 = and i64 %33, 4611686018427387896
  br label %38

38:                                               ; preds = %38, %36
  %39 = phi i64 [ 0, %36 ], [ %80, %38 ]
  %40 = phi i64 [ %37, %36 ], [ %81, %38 ]
  %41 = getelementptr inbounds [8 x i32], [8 x i32]* %2, i64 0, i64 %39
  %42 = bitcast i32* %41 to <4 x i32>*
  store <4 x i32> <i32 10000, i32 10000, i32 10000, i32 10000>, <4 x i32>* %42, align 16, !tbaa !5
  %43 = getelementptr inbounds i32, i32* %41, i64 4
  %44 = bitcast i32* %43 to <4 x i32>*
  store <4 x i32> <i32 10000, i32 10000, i32 10000, i32 10000>, <4 x i32>* %44, align 16, !tbaa !5
  %45 = or i64 %39, 8
  %46 = getelementptr inbounds [8 x i32], [8 x i32]* %2, i64 0, i64 %45
  %47 = bitcast i32* %46 to <4 x i32>*
  store <4 x i32> <i32 10000, i32 10000, i32 10000, i32 10000>, <4 x i32>* %47, align 16, !tbaa !5
  %48 = getelementptr inbounds i32, i32* %46, i64 4
  %49 = bitcast i32* %48 to <4 x i32>*
  store <4 x i32> <i32 10000, i32 10000, i32 10000, i32 10000>, <4 x i32>* %49, align 16, !tbaa !5
  %50 = or i64 %39, 16
  %51 = getelementptr inbounds [8 x i32], [8 x i32]* %2, i64 0, i64 %50
  %52 = bitcast i32* %51 to <4 x i32>*
  store <4 x i32> <i32 10000, i32 10000, i32 10000, i32 10000>, <4 x i32>* %52, align 16, !tbaa !5
  %53 = getelementptr inbounds i32, i32* %51, i64 4
  %54 = bitcast i32* %53 to <4 x i32>*
  store <4 x i32> <i32 10000, i32 10000, i32 10000, i32 10000>, <4 x i32>* %54, align 16, !tbaa !5
  %55 = or i64 %39, 24
  %56 = getelementptr inbounds [8 x i32], [8 x i32]* %2, i64 0, i64 %55
  %57 = bitcast i32* %56 to <4 x i32>*
  store <4 x i32> <i32 10000, i32 10000, i32 10000, i32 10000>, <4 x i32>* %57, align 16, !tbaa !5
  %58 = getelementptr inbounds i32, i32* %56, i64 4
  %59 = bitcast i32* %58 to <4 x i32>*
  store <4 x i32> <i32 10000, i32 10000, i32 10000, i32 10000>, <4 x i32>* %59, align 16, !tbaa !5
  %60 = or i64 %39, 32
  %61 = getelementptr inbounds [8 x i32], [8 x i32]* %2, i64 0, i64 %60
  %62 = bitcast i32* %61 to <4 x i32>*
  store <4 x i32> <i32 10000, i32 10000, i32 10000, i32 10000>, <4 x i32>* %62, align 16, !tbaa !5
  %63 = getelementptr inbounds i32, i32* %61, i64 4
  %64 = bitcast i32* %63 to <4 x i32>*
  store <4 x i32> <i32 10000, i32 10000, i32 10000, i32 10000>, <4 x i32>* %64, align 16, !tbaa !5
  %65 = or i64 %39, 40
  %66 = getelementptr inbounds [8 x i32], [8 x i32]* %2, i64 0, i64 %65
  %67 = bitcast i32* %66 to <4 x i32>*
  store <4 x i32> <i32 10000, i32 10000, i32 10000, i32 10000>, <4 x i32>* %67, align 16, !tbaa !5
  %68 = getelementptr inbounds i32, i32* %66, i64 4
  %69 = bitcast i32* %68 to <4 x i32>*
  store <4 x i32> <i32 10000, i32 10000, i32 10000, i32 10000>, <4 x i32>* %69, align 16, !tbaa !5
  %70 = or i64 %39, 48
  %71 = getelementptr inbounds [8 x i32], [8 x i32]* %2, i64 0, i64 %70
  %72 = bitcast i32* %71 to <4 x i32>*
  store <4 x i32> <i32 10000, i32 10000, i32 10000, i32 10000>, <4 x i32>* %72, align 16, !tbaa !5
  %73 = getelementptr inbounds i32, i32* %71, i64 4
  %74 = bitcast i32* %73 to <4 x i32>*
  store <4 x i32> <i32 10000, i32 10000, i32 10000, i32 10000>, <4 x i32>* %74, align 16, !tbaa !5
  %75 = or i64 %39, 56
  %76 = getelementptr inbounds [8 x i32], [8 x i32]* %2, i64 0, i64 %75
  %77 = bitcast i32* %76 to <4 x i32>*
  store <4 x i32> <i32 10000, i32 10000, i32 10000, i32 10000>, <4 x i32>* %77, align 16, !tbaa !5
  %78 = getelementptr inbounds i32, i32* %76, i64 4
  %79 = bitcast i32* %78 to <4 x i32>*
  store <4 x i32> <i32 10000, i32 10000, i32 10000, i32 10000>, <4 x i32>* %79, align 16, !tbaa !5
  %80 = add nuw i64 %39, 64
  %81 = add i64 %40, -8
  %82 = icmp eq i64 %81, 0
  br i1 %82, label %83, label %38, !llvm.loop !9

83:                                               ; preds = %38, %29
  %84 = phi i64 [ 0, %29 ], [ %80, %38 ]
  %85 = icmp eq i64 %34, 0
  br i1 %85, label %96, label %86

86:                                               ; preds = %83, %86
  %87 = phi i64 [ %93, %86 ], [ %84, %83 ]
  %88 = phi i64 [ %94, %86 ], [ %34, %83 ]
  %89 = getelementptr inbounds [8 x i32], [8 x i32]* %2, i64 0, i64 %87
  %90 = bitcast i32* %89 to <4 x i32>*
  store <4 x i32> <i32 10000, i32 10000, i32 10000, i32 10000>, <4 x i32>* %90, align 16, !tbaa !5
  %91 = getelementptr inbounds i32, i32* %89, i64 4
  %92 = bitcast i32* %91 to <4 x i32>*
  store <4 x i32> <i32 10000, i32 10000, i32 10000, i32 10000>, <4 x i32>* %92, align 16, !tbaa !5
  %93 = add nuw i64 %87, 8
  %94 = add i64 %88, -1
  %95 = icmp eq i64 %94, 0
  br i1 %95, label %96, label %86, !llvm.loop !12

96:                                               ; preds = %86, %83
  %97 = icmp eq i64 %30, %26
  br i1 %97, label %183, label %98

98:                                               ; preds = %27, %96
  %99 = phi i64 [ 0, %27 ], [ %30, %96 ]
  br label %193

100:                                              ; preds = %24
  %101 = zext i32 %22 to i64
  %102 = add nsw i64 %101, -1
  %103 = and i64 %101, 3
  %104 = icmp ult i64 %102, 3
  %105 = and i64 %101, 4294967292
  %106 = icmp eq i64 %103, 0
  br label %107

107:                                              ; preds = %100, %151
  %108 = phi i64 [ 0, %100 ], [ %153, %151 ]
  %109 = getelementptr inbounds [8 x i32], [8 x i32]* %2, i64 0, i64 %108
  br i1 %104, label %136, label %110

110:                                              ; preds = %107, %110
  %111 = phi i64 [ %133, %110 ], [ 0, %107 ]
  %112 = phi i32 [ %132, %110 ], [ 10000, %107 ]
  %113 = phi i64 [ %134, %110 ], [ %105, %107 ]
  %114 = getelementptr inbounds [8 x [8 x i32]], [8 x [8 x i32]]* %1, i64 0, i64 %111, i64 %108
  %115 = load i32, i32* %114, align 4, !tbaa !5
  %116 = icmp slt i32 %115, %112
  %117 = select i1 %116, i32 %115, i32 %112
  %118 = or i64 %111, 1
  %119 = getelementptr inbounds [8 x [8 x i32]], [8 x [8 x i32]]* %1, i64 0, i64 %118, i64 %108
  %120 = load i32, i32* %119, align 4, !tbaa !5
  %121 = icmp slt i32 %120, %117
  %122 = select i1 %121, i32 %120, i32 %117
  %123 = or i64 %111, 2
  %124 = getelementptr inbounds [8 x [8 x i32]], [8 x [8 x i32]]* %1, i64 0, i64 %123, i64 %108
  %125 = load i32, i32* %124, align 4, !tbaa !5
  %126 = icmp slt i32 %125, %122
  %127 = select i1 %126, i32 %125, i32 %122
  %128 = or i64 %111, 3
  %129 = getelementptr inbounds [8 x [8 x i32]], [8 x [8 x i32]]* %1, i64 0, i64 %128, i64 %108
  %130 = load i32, i32* %129, align 4, !tbaa !5
  %131 = icmp slt i32 %130, %127
  %132 = select i1 %131, i32 %130, i32 %127
  %133 = add nuw nsw i64 %111, 4
  %134 = add i64 %113, -4
  %135 = icmp eq i64 %134, 0
  br i1 %135, label %136, label %110, !llvm.loop !14

136:                                              ; preds = %110, %107
  %137 = phi i32 [ undef, %107 ], [ %132, %110 ]
  %138 = phi i64 [ 0, %107 ], [ %133, %110 ]
  %139 = phi i32 [ 10000, %107 ], [ %132, %110 ]
  br i1 %106, label %151, label %140

140:                                              ; preds = %136, %140
  %141 = phi i64 [ %148, %140 ], [ %138, %136 ]
  %142 = phi i32 [ %147, %140 ], [ %139, %136 ]
  %143 = phi i64 [ %149, %140 ], [ %103, %136 ]
  %144 = getelementptr inbounds [8 x [8 x i32]], [8 x [8 x i32]]* %1, i64 0, i64 %141, i64 %108
  %145 = load i32, i32* %144, align 4, !tbaa !5
  %146 = icmp slt i32 %145, %142
  %147 = select i1 %146, i32 %145, i32 %142
  %148 = add nuw nsw i64 %141, 1
  %149 = add i64 %143, -1
  %150 = icmp eq i64 %149, 0
  br i1 %150, label %151, label %140, !llvm.loop !15

151:                                              ; preds = %140, %136
  %152 = phi i32 [ %137, %136 ], [ %147, %140 ]
  store i32 %152, i32* %109, align 4, !tbaa !5
  %153 = add nuw nsw i64 %108, 1
  %154 = icmp eq i64 %153, %26
  br i1 %154, label %183, label %107, !llvm.loop !16

155:                                              ; preds = %15, %177
  %156 = phi i32 [ %178, %177 ], [ %12, %15 ]
  %157 = phi i32 [ %179, %177 ], [ %14, %15 ]
  %158 = phi i64 [ %180, %177 ], [ 0, %15 ]
  %159 = getelementptr inbounds [8 x i32], [8 x i32]* %3, i64 0, i64 %158
  store i32 -1, i32* %159, align 4, !tbaa !5
  %160 = icmp sgt i32 %157, 0
  br i1 %160, label %161, label %177

161:                                              ; preds = %155, %169
  %162 = phi i32 [ %170, %169 ], [ -1, %155 ]
  %163 = phi i64 [ %171, %169 ], [ 0, %155 ]
  %164 = getelementptr inbounds [8 x [8 x i32]], [8 x [8 x i32]]* %1, i64 0, i64 %158, i64 %163
  %165 = call i32 (i8*, ...) @__isoc99_scanf(i8* getelementptr inbounds ([3 x i8], [3 x i8]* @.str.1, i64 0, i64 0), i32* nonnull %164)
  %166 = load i32, i32* %164, align 4, !tbaa !5
  %167 = icmp sgt i32 %166, %162
  br i1 %167, label %168, label %169

168:                                              ; preds = %161
  store i32 %166, i32* %159, align 4, !tbaa !5
  br label %169

169:                                              ; preds = %161, %168
  %170 = phi i32 [ %162, %161 ], [ %166, %168 ]
  %171 = add nuw nsw i64 %163, 1
  %172 = load i32, i32* %6, align 4, !tbaa !5
  %173 = sext i32 %172 to i64
  %174 = icmp slt i64 %171, %173
  br i1 %174, label %161, label %175, !llvm.loop !17

175:                                              ; preds = %169
  %176 = load i32, i32* %5, align 4, !tbaa !5
  br label %177

177:                                              ; preds = %175, %155
  %178 = phi i32 [ %176, %175 ], [ %156, %155 ]
  %179 = phi i32 [ %172, %175 ], [ %157, %155 ]
  %180 = add nuw nsw i64 %158, 1
  %181 = sext i32 %178 to i64
  %182 = icmp slt i64 %180, %181
  br i1 %182, label %155, label %20, !llvm.loop !18

183:                                              ; preds = %193, %151, %96, %20
  %184 = phi i1 [ false, %20 ], [ %23, %96 ], [ %23, %151 ], [ %23, %193 ]
  %185 = phi i32 [ 0, %20 ], [ %21, %96 ], [ %21, %151 ], [ %21, %193 ]
  %186 = icmp sgt i32 %22, 0
  br i1 %186, label %187, label %242

187:                                              ; preds = %183
  br i1 %184, label %198, label %188

188:                                              ; preds = %17, %187
  %189 = phi i32 [ %12, %17 ], [ %22, %187 ]
  %190 = phi i32 [ %14, %17 ], [ %21, %187 ]
  %191 = icmp eq i32 %190, 0
  %192 = select i1 %191, i32 %189, i32 0
  br label %242

193:                                              ; preds = %98, %193
  %194 = phi i64 [ %196, %193 ], [ %99, %98 ]
  %195 = getelementptr inbounds [8 x i32], [8 x i32]* %2, i64 0, i64 %194
  store i32 10000, i32* %195, align 4, !tbaa !5
  %196 = add nuw nsw i64 %194, 1
  %197 = icmp eq i64 %196, %26
  br i1 %197, label %183, label %193, !llvm.loop !20

198:                                              ; preds = %187, %233
  %199 = phi i32 [ %236, %233 ], [ %21, %187 ]
  %200 = phi i32 [ %235, %233 ], [ %21, %187 ]
  %201 = phi i64 [ %237, %233 ], [ 0, %187 ]
  %202 = phi i32 [ %238, %233 ], [ 0, %187 ]
  %203 = getelementptr inbounds [8 x i32], [8 x i32]* %3, i64 0, i64 %201
  %204 = icmp sgt i32 %200, 0
  br i1 %204, label %205, label %225

205:                                              ; preds = %198
  %206 = zext i32 %200 to i64
  br label %207

207:                                              ; preds = %205, %222
  %208 = phi i64 [ 0, %205 ], [ %223, %222 ]
  %209 = getelementptr inbounds [8 x [8 x i32]], [8 x [8 x i32]]* %1, i64 0, i64 %201, i64 %208
  %210 = load i32, i32* %209, align 4, !tbaa !5
  %211 = getelementptr inbounds [8 x i32], [8 x i32]* %2, i64 0, i64 %208
  %212 = load i32, i32* %211, align 4, !tbaa !5
  %213 = icmp eq i32 %210, %212
  br i1 %213, label %214, label %222

214:                                              ; preds = %207
  %215 = load i32, i32* %203, align 4, !tbaa !5
  %216 = icmp eq i32 %210, %215
  br i1 %216, label %217, label %222

217:                                              ; preds = %214
  %218 = trunc i64 %208 to i32
  %219 = trunc i64 %201 to i32
  %220 = call i32 (i8*, ...) @printf(i8* nonnull dereferenceable(1) getelementptr inbounds ([6 x i8], [6 x i8]* @.str.2, i64 0, i64 0), i32 %219, i32 %218)
  %221 = load i32, i32* %6, align 4, !tbaa !5
  br label %225

222:                                              ; preds = %207, %214
  %223 = add nuw nsw i64 %208, 1
  %224 = icmp eq i64 %223, %206
  br i1 %224, label %233, label %207, !llvm.loop !22

225:                                              ; preds = %198, %217
  %226 = phi i32 [ %221, %217 ], [ %199, %198 ]
  %227 = phi i32 [ %221, %217 ], [ %200, %198 ]
  %228 = phi i32 [ %218, %217 ], [ 0, %198 ]
  %229 = icmp eq i32 %228, %227
  br i1 %229, label %233, label %230

230:                                              ; preds = %225
  %231 = trunc i64 %201 to i32
  %232 = load i32, i32* %5, align 4, !tbaa !5
  br label %242

233:                                              ; preds = %222, %225
  %234 = phi i32 [ %228, %225 ], [ %200, %222 ]
  %235 = phi i32 [ %227, %225 ], [ %200, %222 ]
  %236 = phi i32 [ %226, %225 ], [ %199, %222 ]
  %237 = add nuw nsw i64 %201, 1
  %238 = add nuw nsw i32 %202, 1
  %239 = load i32, i32* %5, align 4, !tbaa !5
  %240 = sext i32 %239 to i64
  %241 = icmp slt i64 %237, %240
  br i1 %241, label %198, label %242, !llvm.loop !23

242:                                              ; preds = %233, %188, %230, %183
  %243 = phi i32 [ %21, %183 ], [ %226, %230 ], [ %190, %188 ], [ %236, %233 ]
  %244 = phi i32 [ %22, %183 ], [ %232, %230 ], [ %189, %188 ], [ %239, %233 ]
  %245 = phi i32 [ 0, %183 ], [ %231, %230 ], [ %192, %188 ], [ %238, %233 ]
  %246 = phi i32 [ %185, %183 ], [ %228, %230 ], [ 0, %188 ], [ %234, %233 ]
  %247 = icmp eq i32 %245, %244
  %248 = icmp eq i32 %246, %243
  %249 = select i1 %247, i1 %248, i1 false
  br i1 %249, label %250, label %252

250:                                              ; preds = %242
  %251 = call i32 (i8*, ...) @printf(i8* nonnull dereferenceable(1) getelementptr inbounds ([3 x i8], [3 x i8]* @.str.3, i64 0, i64 0))
  br label %252

252:                                              ; preds = %250, %242
  call void @llvm.lifetime.end.p0i8(i64 4, i8* nonnull %10) #4
  call void @llvm.lifetime.end.p0i8(i64 4, i8* nonnull %9) #4
  call void @llvm.lifetime.end.p0i8(i64 32, i8* nonnull %4) #4
  call void @llvm.lifetime.end.p0i8(i64 32, i8* nonnull %8) #4
  call void @llvm.lifetime.end.p0i8(i64 256, i8* nonnull %7) #4
  ret i32 0
}